; Function Attrs: null_pointer_is_valid sspstrong uwtable
define internal i32 @dissect_oxid_simple_ping_resp(ptr noundef %0, i32 noundef %1, ptr noundef %2, ptr noundef %3, ptr noundef %4, ptr noundef %5) #0 {
  %7 = alloca i32, align 4
  call void @llvm.lifetime.start.p0(i64 4, ptr nonnull %7) #3
  %8 = call i32 @dissect_dcom_HRESULT(ptr noundef %0, i32 noundef %1, ptr noundef %2, ptr noundef %3, ptr noundef %4, ptr noundef %5, ptr noundef nonnull %7)
  %9 = getelementptr inbounds nuw i8, ptr %2, i64 8
  %10 = load ptr, ptr %9, align 8
  %11 = load i32, ptr %7, align 4
  %12 = call ptr @val_to_str(i32 noundef %11, ptr noundef nonnull @dcom_hresult_vals, ptr noundef nonnull @.str.43)
  call void (ptr, i32, ptr, ...) @col_append_fstr(ptr noundef %10, i32 noundef 25, ptr noundef nonnull @.str.42, ptr noundef %12)
  call void @llvm.lifetime.end.p0(i64 4, ptr nonnull %7) #3
  ret i32 %8
}